target datalayout = "e-m:e-p270:32:32-p271:32:32-p272:64:64-i64:64-i128:128-f80:128-n8:16:32:64-S128"
target triple = "x86_64-pc-linux-gnu"

%"struct.duckdb_libpgquery::PGExpr" = type { i32 }
%"struct.duckdb_libpgquery::PGNode" = type { i32 }
%"struct.duckdb_libpgquery::PGAExpr" = type { i32, i32, ptr, ptr, ptr, i32 }
%"struct.duckdb_libpgquery::PGBoolExpr" = type { %"struct.duckdb_libpgquery::PGExpr", i32, ptr, i32 }

; Function Attrs: mustprogress uwtable
define internal noundef ptr @_ZN17duckdb_libpgqueryL11makeAndExprEPNS_6PGNodeES1_i(ptr noundef %0, ptr noundef %1, i32 noundef %2) #0 {
  %4 = alloca ptr, align 8
  %5 = alloca ptr, align 8
  %6 = alloca ptr, align 8
  %7 = alloca i32, align 4
  %8 = alloca ptr, align 8
  %9 = alloca ptr, align 8
  %10 = alloca i32, align 4
  store ptr %0, ptr %5, align 8, !tbaa !408
  store ptr %1, ptr %6, align 8, !tbaa !408
  store i32 %2, ptr %7, align 4, !tbaa !7
  call void @llvm.lifetime.start.p0(i64 8, ptr %8) #13
  %11 = load ptr, ptr %5, align 8, !tbaa !408
  store ptr %11, ptr %8, align 8, !tbaa !408
  br label %12

12:                                               ; preds = %24, %3
  %13 = load ptr, ptr %8, align 8, !tbaa !408
  %14 = getelementptr inbounds nuw %"struct.duckdb_libpgquery::PGNode", ptr %13, i32 0, i32 0
  %15 = load i32, ptr %14, align 4, !tbaa !460
  %16 = icmp eq i32 %15, 352
  br i1 %16, label %17, label %22

17:                                               ; preds = %12
  %18 = load ptr, ptr %8, align 8, !tbaa !408
  %19 = getelementptr inbounds nuw %"struct.duckdb_libpgquery::PGAExpr", ptr %18, i32 0, i32 1
  %20 = load i32, ptr %19, align 4, !tbaa !790
  %21 = icmp eq i32 %20, 16
  br label %22

22:                                               ; preds = %17, %12
  %23 = phi i1 [ false, %12 ], [ %21, %17 ]
  br i1 %23, label %24, label %28

24:                                               ; preds = %22
  %25 = load ptr, ptr %8, align 8, !tbaa !408
  %26 = getelementptr inbounds nuw %"struct.duckdb_libpgquery::PGAExpr", ptr %25, i32 0, i32 3
  %27 = load ptr, ptr %26, align 8, !tbaa !793
  store ptr %27, ptr %8, align 8, !tbaa !408
  br label %12, !llvm.loop !794

28:                                               ; preds = %22
  %29 = load ptr, ptr %8, align 8, !tbaa !408
  %30 = getelementptr inbounds nuw %"struct.duckdb_libpgquery::PGNode", ptr %29, i32 0, i32 0
  %31 = load i32, ptr %30, align 4, !tbaa !460
  %32 = icmp eq i32 %31, 112
  br i1 %32, label %33, label %52

33:                                               ; preds = %28
  call void @llvm.lifetime.start.p0(i64 8, ptr %9) #13
  %34 = load ptr, ptr %8, align 8, !tbaa !408
  store ptr %34, ptr %9, align 8, !tbaa !795
  %35 = load ptr, ptr %9, align 8, !tbaa !795
  %36 = getelementptr inbounds nuw %"struct.duckdb_libpgquery::PGBoolExpr", ptr %35, i32 0, i32 1
  %37 = load i32, ptr %36, align 4, !tbaa !797
  %38 = icmp eq i32 %37, 0
  br i1 %38, label %39, label %48

39:                                               ; preds = %33
  %40 = load ptr, ptr %9, align 8, !tbaa !795
  %41 = getelementptr inbounds nuw %"struct.duckdb_libpgquery::PGBoolExpr", ptr %40, i32 0, i32 2
  %42 = load ptr, ptr %41, align 8, !tbaa !800
  %43 = load ptr, ptr %6, align 8, !tbaa !408
  %44 = call noundef ptr @_ZN17duckdb_libpgquery7lappendEPNS_6PGListEPv(ptr noundef %42, ptr noundef %43)
  %45 = load ptr, ptr %9, align 8, !tbaa !795
  %46 = getelementptr inbounds nuw %"struct.duckdb_libpgquery::PGBoolExpr", ptr %45, i32 0, i32 2
  store ptr %44, ptr %46, align 8, !tbaa !800
  %47 = load ptr, ptr %9, align 8, !tbaa !795
  store ptr %47, ptr %4, align 8
  store i32 1, ptr %10, align 4
  br label %49

48:                                               ; preds = %33
  store i32 0, ptr %10, align 4
  br label %49

49:                                               ; preds = %48, %39
  call void @llvm.lifetime.end.p0(i64 8, ptr %9) #13
  %50 = load i32, ptr %10, align 4
  switch i32 %50, label %59 [
    i32 0, label %51
  ]

51:                                               ; preds = %49
  br label %52

52:                                               ; preds = %51, %28
  %53 = load ptr, ptr %5, align 8, !tbaa !408
  %54 = load ptr, ptr %6, align 8, !tbaa !408
  %55 = call noundef ptr @_ZN17duckdb_libpgquery5lconsEPvPNS_6PGListE(ptr noundef %54, ptr noundef null)
  %56 = call noundef ptr @_ZN17duckdb_libpgquery5lconsEPvPNS_6PGListE(ptr noundef %53, ptr noundef %55)
  %57 = load i32, ptr %7, align 4, !tbaa !7
  %58 = call noundef ptr @_ZN17duckdb_libpgquery12makeBoolExprENS_14PGBoolExprTypeEPNS_6PGListEi(i32 noundef 0, ptr noundef %56, i32 noundef %57)
  store ptr %58, ptr %4, align 8
  store i32 1, ptr %10, align 4
  br label %59

59:                                               ; preds = %52, %49
  call void @llvm.lifetime.end.p0(i64 8, ptr %8) #13
  %60 = load ptr, ptr %4, align 8
  ret ptr %60
}