; Function Attrs: mustprogress uwtable
define internal fastcc noundef ptr @_ZN17duckdb_libpgqueryL11makeAndExprEPNS_6PGNodeES1_i(ptr noundef %0, ptr noundef %1, i32 noundef %2) unnamed_addr #0 {
  br label %4

4:                                                ; preds = %10, %3
  %.016 = phi ptr [ %0, %3 ], [ %12, %10 ]
  %5 = load i32, ptr %.016, align 4, !tbaa !386
  switch i32 %5, label %.critedge18 [
    i32 352, label %6
    i32 112, label %13
  ]

6:                                                ; preds = %4
  %7 = getelementptr inbounds nuw i8, ptr %.016, i64 4
  %8 = load i32, ptr %7, align 4, !tbaa !599
  %9 = icmp eq i32 %8, 16
  br i1 %9, label %10, label %.critedge18

10:                                               ; preds = %6
  %11 = getelementptr inbounds nuw i8, ptr %.016, i64 16
  %12 = load ptr, ptr %11, align 8, !tbaa !602
  br label %4, !llvm.loop !603

13:                                               ; preds = %4
  %14 = getelementptr inbounds nuw i8, ptr %.016, i64 4
  %15 = load i32, ptr %14, align 4, !tbaa !604
  %.not = icmp eq i32 %15, 0
  br i1 %.not, label %16, label %.critedge18

16:                                               ; preds = %13
  %17 = getelementptr inbounds nuw i8, ptr %.016, i64 8
  %18 = load ptr, ptr %17, align 8, !tbaa !607
  %19 = tail call noundef ptr @_ZN17duckdb_libpgquery7lappendEPNS_6PGListEPv(ptr noundef %18, ptr noundef %1)
  store ptr %19, ptr %17, align 8, !tbaa !607
  br label %23

.critedge18:                                      ; preds = %4, %6, %13
  %20 = tail call noundef ptr @_ZN17duckdb_libpgquery5lconsEPvPNS_6PGListE(ptr noundef %1, ptr noundef null)
  %21 = tail call noundef ptr @_ZN17duckdb_libpgquery5lconsEPvPNS_6PGListE(ptr noundef %0, ptr noundef %20)
  %22 = tail call noundef ptr @_ZN17duckdb_libpgquery12makeBoolExprENS_14PGBoolExprTypeEPNS_6PGListEi(i32 noundef 0, ptr noundef %21, i32 noundef %2)
  br label %23

23:                                               ; preds = %16, %.critedge18
  %.1 = phi ptr [ %22, %.critedge18 ], [ %.016, %16 ]
  ret ptr %.1
}